; Function Attrs: mustprogress uwtable
define hidden void @_ZN4cvc58internal6theory11quantifiers10SolvedForm8pop_backENS0_12NodeTemplateILb1EEES5_RNS2_14TermPropertiesE(ptr noundef nonnull align 8 captures(none) dereferenceable(120) %0, ptr noundef readnone captures(none) %1, ptr noundef readnone captures(none) %2, ptr noundef nonnull readonly align 8 captures(none) dereferenceable(24) %3) local_unnamed_addr #4 align 2 personality ptr @__gxx_personality_v0 {
  %5 = getelementptr inbounds nuw i8, ptr %0, i64 8
  %6 = load ptr, ptr %5, align 8, !tbaa !13
  %7 = getelementptr inbounds i8, ptr %6, i64 -8
  store ptr %7, ptr %5, align 8, !tbaa !13
  %8 = load ptr, ptr %7, align 8, !tbaa !3
  %9 = load i64, ptr %8, align 8
  %10 = and i64 %9, 1152920405095219200
  %.not.i.i.i.i.i = icmp eq i64 %10, 1152920405095219200
  br i1 %.not.i.i.i.i.i, label %_ZNSt6vectorIN4cvc58internal12NodeTemplateILb1EEESaIS3_EE8pop_backEv.exit, label %11, !prof !11

11:                                               ; preds = %4
  %12 = add i64 %9, 1152920405095219200
  %13 = and i64 %12, 1152920405095219200
  %14 = and i64 %9, -1152920405095219201
  %15 = or disjoint i64 %13, %14
  store i64 %15, ptr %8, align 8
  %16 = icmp eq i64 %13, 0
  br i1 %16, label %17, label %_ZNSt6vectorIN4cvc58internal12NodeTemplateILb1EEESaIS3_EE8pop_backEv.exit, !prof !11

17:                                               ; preds = %11
  invoke void @_ZN4cvc58internal4expr9NodeValue15markForDeletionEv(ptr noundef nonnull align 8 dereferenceable(24) %8)
          to label %_ZNSt6vectorIN4cvc58internal12NodeTemplateILb1EEESaIS3_EE8pop_backEv.exit unwind label %18

18:                                               ; preds = %17
  %19 = landingpad { ptr, i32 }
          catch ptr null
  %20 = extractvalue { ptr, i32 } %19, 0
  tail call void @__clang_call_terminate(ptr %20) #20
  unreachable

_ZNSt6vectorIN4cvc58internal12NodeTemplateILb1EEESaIS3_EE8pop_backEv.exit: ; preds = %4, %11, %17
  %21 = getelementptr inbounds nuw i8, ptr %0, i64 32
  %22 = load ptr, ptr %21, align 8, !tbaa !13
  %23 = getelementptr inbounds i8, ptr %22, i64 -8
  store ptr %23, ptr %21, align 8, !tbaa !13
  %24 = load ptr, ptr %23, align 8, !tbaa !3
  %25 = load i64, ptr %24, align 8
  %26 = and i64 %25, 1152920405095219200
  %.not.i.i.i.i.i2 = icmp eq i64 %26, 1152920405095219200
  br i1 %.not.i.i.i.i.i2, label %_ZNSt6vectorIN4cvc58internal12NodeTemplateILb1EEESaIS3_EE8pop_backEv.exit3, label %27, !prof !11

27:                                               ; preds = %_ZNSt6vectorIN4cvc58internal12NodeTemplateILb1EEESaIS3_EE8pop_backEv.exit
  %28 = add i64 %25, 1152920405095219200
  %29 = and i64 %28, 1152920405095219200
  %30 = and i64 %25, -1152920405095219201
  %31 = or disjoint i64 %29, %30
  store i64 %31, ptr %24, align 8
  %32 = icmp eq i64 %29, 0
  br i1 %32, label %33, label %_ZNSt6vectorIN4cvc58internal12NodeTemplateILb1EEESaIS3_EE8pop_backEv.exit3, !prof !11

33:                                               ; preds = %27
  invoke void @_ZN4cvc58internal4expr9NodeValue15markForDeletionEv(ptr noundef nonnull align 8 dereferenceable(24) %24)
          to label %_ZNSt6vectorIN4cvc58internal12NodeTemplateILb1EEESaIS3_EE8pop_backEv.exit3 unwind label %34

34:                                               ; preds = %33
  %35 = landingpad { ptr, i32 }
          catch ptr null
  %36 = extractvalue { ptr, i32 } %35, 0
  tail call void @__clang_call_terminate(ptr %36) #20
  unreachable

_ZNSt6vectorIN4cvc58internal12NodeTemplateILb1EEESaIS3_EE8pop_backEv.exit3: ; preds = %_ZNSt6vectorIN4cvc58internal12NodeTemplateILb1EEESaIS3_EE8pop_backEv.exit, %27, %33
  %37 = getelementptr inbounds nuw i8, ptr %0, i64 56
  %38 = load ptr, ptr %37, align 8, !tbaa !17
  %39 = getelementptr inbounds i8, ptr %38, i64 -24
  store ptr %39, ptr %37, align 8, !tbaa !17
  %40 = load ptr, ptr %39, align 8, !tbaa !21
  %41 = load ptr, ptr %40, align 8
  tail call void %41(ptr noundef nonnull align 8 dereferenceable(24) %39) #19
  %42 = getelementptr inbounds nuw i8, ptr %3, i64 16
  %43 = load ptr, ptr %42, align 8, !tbaa !3
  %44 = load atomic i8, ptr @_ZGVZN4cvc58internal4expr9NodeValue4nullEvE6s_null acquire, align 8
  %45 = icmp eq i8 %44, 0
  br i1 %45, label %46, label %_ZNK4cvc58internal6theory11quantifiers14TermProperties7isBasicEv.exit, !prof !9

46:                                               ; preds = %_ZNSt6vectorIN4cvc58internal12NodeTemplateILb1EEESaIS3_EE8pop_backEv.exit3
  %47 = tail call i32 @__cxa_guard_acquire(ptr nonnull @_ZGVZN4cvc58internal4expr9NodeValue4nullEvE6s_null) #19
  %.not.i.i.i = icmp eq i32 %47, 0
  br i1 %.not.i.i.i, label %_ZNK4cvc58internal6theory11quantifiers14TermProperties7isBasicEv.exit, label %48

48:                                               ; preds = %46
  %49 = invoke noalias noundef nonnull dereferenceable(24) ptr @_Znwm(i64 noundef 24) #21
          to label %50 unwind label %52

50:                                               ; preds = %48
  store i64 1152920405095219200, ptr %49, align 8
  %51 = getelementptr inbounds nuw i8, ptr %49, i64 8
  tail call void @llvm.memset.p0.i64(ptr noundef nonnull align 8 dereferenceable(16) %51, i8 0, i64 16, i1 false)
  store ptr %49, ptr @_ZZN4cvc58internal4expr9NodeValue4nullEvE6s_null, align 8, !tbaa !10
  tail call void @__cxa_guard_release(ptr nonnull @_ZGVZN4cvc58internal4expr9NodeValue4nullEvE6s_null) #19
  br label %_ZNK4cvc58internal6theory11quantifiers14TermProperties7isBasicEv.exit

52:                                               ; preds = %48
  %53 = landingpad { ptr, i32 }
          cleanup
  tail call void @__cxa_guard_abort(ptr nonnull @_ZGVZN4cvc58internal4expr9NodeValue4nullEvE6s_null) #19
  resume { ptr, i32 } %53

_ZNK4cvc58internal6theory11quantifiers14TermProperties7isBasicEv.exit: ; preds = %_ZNSt6vectorIN4cvc58internal12NodeTemplateILb1EEESaIS3_EE8pop_backEv.exit3, %46, %50
  %54 = load ptr, ptr @_ZZN4cvc58internal4expr9NodeValue4nullEvE6s_null, align 8, !tbaa !10
  %55 = icmp eq ptr %43, %54
  br i1 %55, label %_ZNSt6vectorIN4cvc58internal12NodeTemplateILb1EEESaIS3_EE8pop_backEv.exit7, label %56

56:                                               ; preds = %_ZNK4cvc58internal6theory11quantifiers14TermProperties7isBasicEv.exit
  %57 = getelementptr inbounds nuw i8, ptr %0, i64 80
  %58 = load ptr, ptr %57, align 8, !tbaa !13
  %59 = getelementptr inbounds i8, ptr %58, i64 -8
  store ptr %59, ptr %57, align 8, !tbaa !13
  %60 = load ptr, ptr %59, align 8, !tbaa !3
  %61 = load i64, ptr %60, align 8
  %62 = and i64 %61, 1152920405095219200
  %.not.i.i.i.i.i4 = icmp eq i64 %62, 1152920405095219200
  br i1 %.not.i.i.i.i.i4, label %_ZNSt6vectorIN4cvc58internal12NodeTemplateILb1EEESaIS3_EE8pop_backEv.exit5, label %63, !prof !11

63:                                               ; preds = %56
  %64 = add i64 %61, 1152920405095219200
  %65 = and i64 %64, 1152920405095219200
  %66 = and i64 %61, -1152920405095219201
  %67 = or disjoint i64 %65, %66
  store i64 %67, ptr %60, align 8
  %68 = icmp eq i64 %65, 0
  br i1 %68, label %69, label %_ZNSt6vectorIN4cvc58internal12NodeTemplateILb1EEESaIS3_EE8pop_backEv.exit5, !prof !11

69:                                               ; preds = %63
  invoke void @_ZN4cvc58internal4expr9NodeValue15markForDeletionEv(ptr noundef nonnull align 8 dereferenceable(24) %60)
          to label %_ZNSt6vectorIN4cvc58internal12NodeTemplateILb1EEESaIS3_EE8pop_backEv.exit5 unwind label %70

70:                                               ; preds = %69
  %71 = landingpad { ptr, i32 }
          catch ptr null
  %72 = extractvalue { ptr, i32 } %71, 0
  tail call void @__clang_call_terminate(ptr %72) #20
  unreachable

_ZNSt6vectorIN4cvc58internal12NodeTemplateILb1EEESaIS3_EE8pop_backEv.exit5: ; preds = %56, %63, %69
  %73 = getelementptr inbounds nuw i8, ptr %0, i64 104
  %74 = load ptr, ptr %73, align 8, !tbaa !13
  %75 = getelementptr inbounds i8, ptr %74, i64 -8
  store ptr %75, ptr %73, align 8, !tbaa !13
  %76 = load ptr, ptr %75, align 8, !tbaa !3
  %77 = load i64, ptr %76, align 8
  %78 = and i64 %77, 1152920405095219200
  %.not.i.i.i.i.i6 = icmp eq i64 %78, 1152920405095219200
  br i1 %.not.i.i.i.i.i6, label %_ZNSt6vectorIN4cvc58internal12NodeTemplateILb1EEESaIS3_EE8pop_backEv.exit7, label %79, !prof !11

79:                                               ; preds = %_ZNSt6vectorIN4cvc58internal12NodeTemplateILb1EEESaIS3_EE8pop_backEv.exit5
  %80 = add i64 %77, 1152920405095219200
  %81 = and i64 %80, 1152920405095219200
  %82 = and i64 %77, -1152920405095219201
  %83 = or disjoint i64 %81, %82
  store i64 %83, ptr %76, align 8
  %84 = icmp eq i64 %81, 0
  br i1 %84, label %85, label %_ZNSt6vectorIN4cvc58internal12NodeTemplateILb1EEESaIS3_EE8pop_backEv.exit7, !prof !11

85:                                               ; preds = %79
  invoke void @_ZN4cvc58internal4expr9NodeValue15markForDeletionEv(ptr noundef nonnull align 8 dereferenceable(24) %76)
          to label %_ZNSt6vectorIN4cvc58internal12NodeTemplateILb1EEESaIS3_EE8pop_backEv.exit7 unwind label %86

86:                                               ; preds = %85
  %87 = landingpad { ptr, i32 }
          catch ptr null
  %88 = extractvalue { ptr, i32 } %87, 0
  tail call void @__clang_call_terminate(ptr %88) #20
  unreachable

_ZNSt6vectorIN4cvc58internal12NodeTemplateILb1EEESaIS3_EE8pop_backEv.exit7: ; preds = %85, %79, %_ZNSt6vectorIN4cvc58internal12NodeTemplateILb1EEESaIS3_EE8pop_backEv.exit5, %_ZNK4cvc58internal6theory11quantifiers14TermProperties7isBasicEv.exit
  ret void
}